; Function Attrs: mustprogress uwtable
define noundef zeroext i1 @_ZNK8facebook5velox11ArrayVector10isWritableEv(ptr noundef nonnull align 8 dereferenceable(152) %this) unnamed_addr #0 align 2 personality ptr @__gxx_personality_v0 {
entry:
  %offsets_ = getelementptr inbounds i8, ptr %this, i64 104
  %0 = load ptr, ptr %offsets_, align 8
  %cmp.i.not = icmp eq ptr %0, null
  br i1 %cmp.i.not, label %if.end, label %land.lhs.true

land.lhs.true:                                    ; preds = %entry
  %vtable.i = load ptr, ptr %0, align 8
  %vfn.i = getelementptr inbounds i8, ptr %vtable.i, i64 24
  %1 = load ptr, ptr %vfn.i, align 8
  %call.i = tail call noundef zeroext i1 %1(ptr noundef nonnull align 8 dereferenceable(64) %0)
  br i1 %call.i, label %return, label %_ZNK8facebook5velox6Buffer9isMutableEv.exit

_ZNK8facebook5velox6Buffer9isMutableEv.exit:      ; preds = %land.lhs.true
  %referenceCount_.i.i = getelementptr inbounds i8, ptr %0, i64 40
  %2 = load atomic i32, ptr %referenceCount_.i.i seq_cst, align 4
  %cmp.i.i = icmp eq i32 %2, 1
  br i1 %cmp.i.i, label %if.end, label %return

if.end:                                           ; preds = %_ZNK8facebook5velox6Buffer9isMutableEv.exit, %entry
  %sizes_ = getelementptr inbounds i8, ptr %this, i64 120
  %3 = load ptr, ptr %sizes_, align 8
  %cmp.i1.not = icmp eq ptr %3, null
  br i1 %cmp.i1.not, label %if.end11, label %land.lhs.true6

land.lhs.true6:                                   ; preds = %if.end
  %vtable.i2 = load ptr, ptr %3, align 8
  %vfn.i3 = getelementptr inbounds i8, ptr %vtable.i2, i64 24
  %4 = load ptr, ptr %vfn.i3, align 8
  %call.i4 = tail call noundef zeroext i1 %4(ptr noundef nonnull align 8 dereferenceable(64) %3)
  br i1 %call.i4, label %return, label %_ZNK8facebook5velox6Buffer9isMutableEv.exit8

_ZNK8facebook5velox6Buffer9isMutableEv.exit8:     ; preds = %land.lhs.true6
  %referenceCount_.i.i6 = getelementptr inbounds i8, ptr %3, i64 40
  %5 = load atomic i32, ptr %referenceCount_.i.i6 seq_cst, align 4
  %cmp.i.i7 = icmp eq i32 %5, 1
  br i1 %cmp.i.i7, label %if.end11, label %return

if.end11:                                         ; preds = %_ZNK8facebook5velox6Buffer9isMutableEv.exit8, %if.end
  %vtable = load ptr, ptr %this, align 8
  %vfn = getelementptr inbounds i8, ptr %vtable, i64 152
  %6 = load ptr, ptr %vfn, align 8
  %call12 = tail call noundef zeroext i1 %6(ptr noundef nonnull align 8 dereferenceable(99) %this)
  br i1 %call12, label %land.rhs, label %return

land.rhs:                                         ; preds = %if.end11
  %elements_ = getelementptr inbounds i8, ptr %this, i64 136
  %_M_refcount.i.i = getelementptr inbounds i8, ptr %this, i64 144
  %7 = load ptr, ptr %_M_refcount.i.i, align 8
  %tobool.not.i.i.i.i = icmp eq ptr %7, null
  br i1 %tobool.not.i.i.i.i, label %return, label %_ZNKSt12__shared_ptrIN8facebook5velox10BaseVectorELN9__gnu_cxx12_Lock_policyE2EE6uniqueEv.exit.i

_ZNKSt12__shared_ptrIN8facebook5velox10BaseVectorELN9__gnu_cxx12_Lock_policyE2EE6uniqueEv.exit.i: ; preds = %land.rhs
  %_M_use_count.i.i.i.i.i = getelementptr inbounds i8, ptr %7, i64 8
  %8 = load atomic i32, ptr %_M_use_count.i.i.i.i.i monotonic, align 8
  %9 = icmp eq i32 %8, 1
  br i1 %9, label %if.end.i, label %return

if.end.i:                                         ; preds = %_ZNKSt12__shared_ptrIN8facebook5velox10BaseVectorELN9__gnu_cxx12_Lock_policyE2EE6uniqueEv.exit.i
  %10 = load ptr, ptr %elements_, align 8
  %vtable.i9 = load ptr, ptr %10, align 8
  %vfn.i10 = getelementptr inbounds i8, ptr %vtable.i9, i64 240
  %11 = load ptr, ptr %vfn.i10, align 8
  %call2.i = tail call noundef zeroext i1 %11(ptr noundef nonnull align 8 dereferenceable(99) %10)
  br label %return

return:                                           ; preds = %land.lhs.true6, %land.lhs.true, %if.end.i, %_ZNKSt12__shared_ptrIN8facebook5velox10BaseVectorELN9__gnu_cxx12_Lock_policyE2EE6uniqueEv.exit.i, %land.rhs, %if.end11, %_ZNK8facebook5velox6Buffer9isMutableEv.exit8, %_ZNK8facebook5velox6Buffer9isMutableEv.exit
  %retval.0 = phi i1 [ false, %_ZNK8facebook5velox6Buffer9isMutableEv.exit ], [ false, %_ZNK8facebook5velox6Buffer9isMutableEv.exit8 ], [ false, %if.end11 ], [ %call2.i, %if.end.i ], [ false, %_ZNKSt12__shared_ptrIN8facebook5velox10BaseVectorELN9__gnu_cxx12_Lock_policyE2EE6uniqueEv.exit.i ], [ false, %land.rhs ], [ false, %land.lhs.true ], [ false, %land.lhs.true6 ]
  ret i1 %retval.0
}